; Function Attrs: nounwind uwtable
define ptr @cl_sign_file_fd(i32 noundef %0, ptr noundef %1, ptr noundef %2, ptr noundef writeonly captures(none) %3, i32 noundef %4) local_unnamed_addr #1 {
  %6 = alloca i32, align 4
  call void @llvm.lifetime.start.p0(i64 4, ptr nonnull %6) #12
  %7 = tail call ptr @EVP_get_digestbyname(ptr noundef %2) #12
  %.not.i = icmp eq ptr %7, null
  br i1 %.not.i, label %cl_hash_file_fd.exit.thread, label %8

8:                                                ; preds = %5
  %9 = tail call ptr @EVP_MD_CTX_new() #12
  %.not14.i = icmp eq ptr %9, null
  br i1 %.not14.i, label %cl_hash_file_fd.exit.thread, label %10

10:                                               ; preds = %8
  tail call void @EVP_MD_CTX_set_flags(ptr noundef nonnull %9, i32 noundef 8) #12
  %11 = tail call i32 @EVP_DigestInit_ex(ptr noundef nonnull %9, ptr noundef nonnull %7, ptr noundef null) #12
  %.not15.i = icmp eq i32 %11, 0
  br i1 %.not15.i, label %cl_hash_file_fd.exit.thread13, label %cl_hash_file_fd.exit

cl_hash_file_fd.exit.thread13:                    ; preds = %10
  tail call void @EVP_MD_CTX_free(ptr noundef nonnull %9) #12
  br label %cl_hash_file_fd.exit.thread

cl_hash_file_fd.exit:                             ; preds = %10
  %12 = call ptr @cl_hash_file_fd_ctx(ptr noundef nonnull %9, i32 noundef %0, ptr noundef nonnull %6)
  call void @EVP_MD_CTX_free(ptr noundef nonnull %9) #12
  %.not = icmp eq ptr %12, null
  br i1 %.not, label %cl_hash_file_fd.exit.thread, label %13

13:                                               ; preds = %cl_hash_file_fd.exit
  %14 = call ptr @cl_sign_data(ptr noundef %1, ptr noundef %2, ptr noundef nonnull %12, ptr noundef %3, i32 noundef %4)
  call void @free(ptr noundef nonnull %12) #12
  br label %cl_hash_file_fd.exit.thread

cl_hash_file_fd.exit.thread:                      ; preds = %8, %5, %cl_hash_file_fd.exit.thread13, %cl_hash_file_fd.exit, %13
  %.0 = phi ptr [ %14, %13 ], [ null, %cl_hash_file_fd.exit ], [ null, %cl_hash_file_fd.exit.thread13 ], [ null, %5 ], [ null, %8 ]
  call void @llvm.lifetime.end.p0(i64 4, ptr nonnull %6) #12
  ret ptr %.0
}